target datalayout = "e-m:e-p270:32:32-p271:32:32-p272:64:64-i64:64-i128:128-f80:128-n8:16:32:64-S128"
target triple = "x86_64-pc-linux-gnu"

%struct.PJconsts = type { ptr, ptr, ptr, ptr, ptr, ptr, ptr, ptr, ptr, ptr, ptr, ptr, i32, ptr, ptr, ptr, ptr, ptr, ptr, ptr, ptr, double, double, double, double, double, double, double, double, double, double, double, double, double, double, double, double, double, double, double, double, double, double, i32, i32, i32, i32, i32, i32, i32, i32, i32, i32, i32, ptr, ptr, ptr, ptr, ptr, ptr, double, double, double, double, double, double, double, double, double, double, double, i32, [7 x double], i32, ptr, ptr, double, double, i32, [4 x i8], %"class.std::shared_ptr", i8, double, i8, %"class.std::__cxx11::basic_string", %"class.std::__cxx11::basic_string", %"class.std::__cxx11::basic_string", i8, %"class.std::vector", i32, %"class.std::vector.3", i32, i8, i8, i8, ptr }
%"class.std::shared_ptr" = type { %"class.std::__shared_ptr" }
%"class.std::__shared_ptr" = type { ptr, %"class.std::__shared_count" }
%"class.std::__shared_count" = type { ptr }
%"class.std::__cxx11::basic_string" = type { %"struct.std::__cxx11::basic_string<char>::_Alloc_hider", i64, %union.anon }
%"struct.std::__cxx11::basic_string<char>::_Alloc_hider" = type { ptr }
%union.anon = type { i64, [8 x i8] }
%"class.std::vector" = type { %"struct.std::_Vector_base" }
%"struct.std::_Vector_base" = type { %"struct.std::_Vector_base<osgeo::proj::operation::GridDescription, std::allocator<osgeo::proj::operation::GridDescription>>::_Vector_impl" }
%"struct.std::_Vector_base<osgeo::proj::operation::GridDescription, std::allocator<osgeo::proj::operation::GridDescription>>::_Vector_impl" = type { %"struct.std::_Vector_base<osgeo::proj::operation::GridDescription, std::allocator<osgeo::proj::operation::GridDescription>>::_Vector_impl_data" }
%"struct.std::_Vector_base<osgeo::proj::operation::GridDescription, std::allocator<osgeo::proj::operation::GridDescription>>::_Vector_impl_data" = type { ptr, ptr, ptr }
%"class.std::vector.3" = type { %"struct.std::_Vector_base.4" }
%"struct.std::_Vector_base.4" = type { %"struct.std::_Vector_base<PJCoordOperation, std::allocator<PJCoordOperation>>::_Vector_impl" }
%"struct.std::_Vector_base<PJCoordOperation, std::allocator<PJCoordOperation>>::_Vector_impl" = type { %"struct.std::_Vector_base<PJCoordOperation, std::allocator<PJCoordOperation>>::_Vector_impl_data" }
%"struct.std::_Vector_base<PJCoordOperation, std::allocator<PJCoordOperation>>::_Vector_impl_data" = type { ptr, ptr, ptr }

@_ZL11des_longlat = internal constant [28 x i8] c"Lat/long (Geodetic alias)\0A\09\00", align 16
@.str.1 = private unnamed_addr constant [8 x i8] c"longlat\00", align 1

; Function Attrs: mustprogress nounwind uwtable
define internal noundef ptr @_ZL13latlong_setupP8PJconsts(ptr noundef %0) #2 {
  %2 = alloca ptr, align 8
  store ptr %0, ptr %2, align 8, !tbaa !3
  %3 = load ptr, ptr %2, align 8, !tbaa !3
  %4 = getelementptr inbounds nuw %struct.PJconsts, ptr %3, i32 0, i32 45
  store i32 1, ptr %4, align 8, !tbaa !41
  %5 = load ptr, ptr %2, align 8, !tbaa !3
  %6 = getelementptr inbounds nuw %struct.PJconsts, ptr %5, i32 0, i32 62
  store double 0.000000e+00, ptr %6, align 8, !tbaa !42
  %7 = load ptr, ptr %2, align 8, !tbaa !3
  %8 = getelementptr inbounds nuw %struct.PJconsts, ptr %7, i32 0, i32 63
  store double 0.000000e+00, ptr %8, align 8, !tbaa !43
  %9 = load ptr, ptr %2, align 8, !tbaa !3
  %10 = getelementptr inbounds nuw %struct.PJconsts, ptr %9, i32 0, i32 14
  store ptr @_ZL15latlong_inverse5PJ_XYP8PJconsts, ptr %10, align 8, !tbaa !44
  %11 = load ptr, ptr %2, align 8, !tbaa !3
  %12 = getelementptr inbounds nuw %struct.PJconsts, ptr %11, i32 0, i32 13
  store ptr @_ZL15latlong_forward5PJ_LPP8PJconsts, ptr %12, align 8, !tbaa !45
  %13 = load ptr, ptr %2, align 8, !tbaa !3
  %14 = getelementptr inbounds nuw %struct.PJconsts, ptr %13, i32 0, i32 16
  store ptr @_ZL18latlong_inverse_3d6PJ_XYZP8PJconsts, ptr %14, align 8, !tbaa !46
  %15 = load ptr, ptr %2, align 8, !tbaa !3
  %16 = getelementptr inbounds nuw %struct.PJconsts, ptr %15, i32 0, i32 15
  store ptr @_ZL18latlong_forward_3d6PJ_LPZP8PJconsts, ptr %16, align 8, !tbaa !47
  %17 = load ptr, ptr %2, align 8, !tbaa !3
  %18 = getelementptr inbounds nuw %struct.PJconsts, ptr %17, i32 0, i32 18
  store ptr @_ZL18latlong_inverse_4dR8PJ_COORDP8PJconsts, ptr %18, align 8, !tbaa !48
  %19 = load ptr, ptr %2, align 8, !tbaa !3
  %20 = getelementptr inbounds nuw %struct.PJconsts, ptr %19, i32 0, i32 17
  store ptr @_ZL18latlong_forward_4dR8PJ_COORDP8PJconsts, ptr %20, align 8, !tbaa !49
  %21 = load ptr, ptr %2, align 8, !tbaa !3
  %22 = getelementptr inbounds nuw %struct.PJconsts, ptr %21, i32 0, i32 52
  store i32 4, ptr %22, align 4, !tbaa !39
  %23 = load ptr, ptr %2, align 8, !tbaa !3
  %24 = getelementptr inbounds nuw %struct.PJconsts, ptr %23, i32 0, i32 53
  store i32 4, ptr %24, align 8, !tbaa !40
  %25 = load ptr, ptr %2, align 8, !tbaa !3
  ret ptr %25
}

; Function Attrs: mustprogress uwtable
define hidden noundef ptr @_Z36pj_projection_specific_setup_longlatP8PJconsts(ptr noundef %0) #0 {
  %2 = alloca ptr, align 8
  store ptr %0, ptr %2, align 8, !tbaa !3
  %3 = load ptr, ptr %2, align 8, !tbaa !3
  %4 = call noundef ptr @_ZL13latlong_setupP8PJconsts(ptr noundef %3)
  ret ptr %4
}

; Function Attrs: mustprogress uwtable
define hidden ptr @pj_longlat(ptr noundef %0) #0 {
  %2 = alloca ptr, align 8
  %3 = alloca ptr, align 8
  store ptr %0, ptr %3, align 8, !tbaa !3
  %4 = load ptr, ptr %3, align 8, !tbaa !3
  %5 = icmp ne ptr %4, null
  br i1 %5, label %6, label %9

6:                                                ; preds = %1
  %7 = load ptr, ptr %3, align 8, !tbaa !3
  %8 = call noundef ptr @_Z36pj_projection_specific_setup_longlatP8PJconsts(ptr noundef %7)
  store ptr %8, ptr %2, align 8
  br label %26

9:                                                ; preds = %1
  %10 = call noundef ptr @_Z6pj_newv()
  store ptr %10, ptr %3, align 8, !tbaa !3
  %11 = load ptr, ptr %3, align 8, !tbaa !3
  %12 = icmp eq ptr null, %11
  br i1 %12, label %13, label %14

13:                                               ; preds = %9
  store ptr null, ptr %2, align 8
  br label %26

14:                                               ; preds = %9
  %15 = load ptr, ptr %3, align 8, !tbaa !3
  %16 = getelementptr inbounds nuw %struct.PJconsts, ptr %15, i32 0, i32 1
  store ptr @.str.1, ptr %16, align 8, !tbaa !8
  %17 = load ptr, ptr %3, align 8, !tbaa !3
  %18 = getelementptr inbounds nuw %struct.PJconsts, ptr %17, i32 0, i32 2
  store ptr @_ZL11des_longlat, ptr %18, align 8, !tbaa !37
  %19 = load ptr, ptr %3, align 8, !tbaa !3
  %20 = getelementptr inbounds nuw %struct.PJconsts, ptr %19, i32 0, i32 47
  store i32 1, ptr %20, align 8, !tbaa !38
  %21 = load ptr, ptr %3, align 8, !tbaa !3
  %22 = getelementptr inbounds nuw %struct.PJconsts, ptr %21, i32 0, i32 52
  store i32 4, ptr %22, align 4, !tbaa !39
  %23 = load ptr, ptr %3, align 8, !tbaa !3
  %24 = getelementptr inbounds nuw %struct.PJconsts, ptr %23, i32 0, i32 53
  store i32 1, ptr %24, align 8, !tbaa !40
  %25 = load ptr, ptr %3, align 8, !tbaa !3
  store ptr %25, ptr %2, align 8
  br label %26

26:                                               ; preds = %14, %13, %6
  %27 = load ptr, ptr %2, align 8
  ret ptr %27
}